; Function Attrs: mustprogress uwtable
define void @_ZN9grpc_core14HealthProducer13HealthChecker6OrphanEv(ptr noundef nonnull align 8 dereferenceable(128) %this) unnamed_addr #3 align 2 personality ptr @__gxx_personality_v0 {
entry:
  %stream_client_ = getelementptr inbounds i8, ptr %this, i64 72
  %0 = load ptr, ptr %stream_client_, align 8
  store ptr null, ptr %stream_client_, align 8
  %tobool.not.i.i = icmp eq ptr %0, null
  br i1 %tobool.not.i.i, label %_ZNSt10unique_ptrIN9grpc_core22SubchannelStreamClientENS0_16OrphanableDeleteEE5resetEPS1_.exit, label %if.then.i.i

if.then.i.i:                                      ; preds = %entry
  %vtable.i.i.i = load ptr, ptr %0, align 8
  %1 = load ptr, ptr %vtable.i.i.i, align 8
  invoke void %1(ptr noundef nonnull align 8 dereferenceable(448) %0)
          to label %_ZNSt10unique_ptrIN9grpc_core22SubchannelStreamClientENS0_16OrphanableDeleteEE5resetEPS1_.exit unwind label %terminate.lpad.i.i

terminate.lpad.i.i:                               ; preds = %if.then.i.i
  %2 = landingpad { ptr, i32 }
          catch ptr null
  %3 = extractvalue { ptr, i32 } %2, 0
  tail call void @__clang_call_terminate(ptr %3) #22
  unreachable

_ZNSt10unique_ptrIN9grpc_core22SubchannelStreamClientENS0_16OrphanableDeleteEE5resetEPS1_.exit: ; preds = %entry, %if.then.i.i
  %refs_.i = getelementptr inbounds i8, ptr %this, i64 8
  %4 = atomicrmw sub ptr %refs_.i, i64 1 acq_rel, align 8
  %cmp.i.i = icmp eq i64 %4, 1
  br i1 %cmp.i.i, label %if.then.i, label %_ZN9grpc_core20InternallyRefCountedINS_14HealthProducer13HealthCheckerENS_11UnrefDeleteEE5UnrefEv.exit

if.then.i:                                        ; preds = %_ZNSt10unique_ptrIN9grpc_core22SubchannelStreamClientENS0_16OrphanableDeleteEE5resetEPS1_.exit
  %vtable.i.i = load ptr, ptr %this, align 8
  %vfn.i.i = getelementptr inbounds i8, ptr %vtable.i.i, i64 16
  %5 = load ptr, ptr %vfn.i.i, align 8
  tail call void %5(ptr noundef nonnull align 8 dereferenceable(128) %this) #21
  br label %_ZN9grpc_core20InternallyRefCountedINS_14HealthProducer13HealthCheckerENS_11UnrefDeleteEE5UnrefEv.exit

_ZN9grpc_core20InternallyRefCountedINS_14HealthProducer13HealthCheckerENS_11UnrefDeleteEE5UnrefEv.exit: ; preds = %_ZNSt10unique_ptrIN9grpc_core22SubchannelStreamClientENS0_16OrphanableDeleteEE5resetEPS1_.exit, %if.then.i
  ret void
}